target datalayout = "e-m:e-p270:32:32-p271:32:32-p272:64:64-i64:64-i128:128-f80:128-n8:16:32:64-S128"
target triple = "x86_64-pc-linux-gnu"

; Function Attrs: nounwind uwtable
define internal void @draw_idots(ptr noundef %0, i32 noundef %1, float noundef %2) #1 {
  %4 = alloca ptr, align 8
  %5 = alloca i32, align 4
  %6 = alloca float, align 4
  %7 = alloca float, align 4
  %8 = alloca i32, align 4
  store ptr %0, ptr %4, align 8, !tbaa !82
  store i32 %1, ptr %5, align 4, !tbaa !47
  store float %2, ptr %6, align 4, !tbaa !67
  call void @llvm.lifetime.start.p0(i64 4, ptr %7) #11
  %9 = load float, ptr %6, align 4, !tbaa !67
  %10 = fpext nsz float %9 to double
  %11 = fsub nsz double 1.000000e+00, %10
  %12 = fptrunc nsz double %11 to float
  store float %12, ptr %7, align 4, !tbaa !67
  call void @llvm.lifetime.start.p0(i64 4, ptr %8) #11
  %13 = load i32, ptr %5, align 4, !tbaa !47
  %14 = mul nsw i32 %13, 2
  store i32 %14, ptr %8, align 4, !tbaa !47
  %15 = load ptr, ptr %4, align 8, !tbaa !82
  %16 = load i32, ptr %8, align 4, !tbaa !47
  %17 = sub nsw i32 %16, 3
  %18 = sext i32 %17 to i64
  %19 = getelementptr inbounds i8, ptr %15, i64 %18
  %20 = load i8, ptr %19, align 1, !tbaa !102
  %21 = zext i8 %20 to i32
  %22 = sitofp i32 %21 to float
  %23 = load float, ptr %7, align 4, !tbaa !67
  %24 = load ptr, ptr %4, align 8, !tbaa !82
  %25 = load i32, ptr %8, align 4, !tbaa !47
  %26 = sub nsw i32 %25, 3
  %27 = sext i32 %26 to i64
  %28 = getelementptr inbounds i8, ptr %24, i64 %27
  %29 = load i8, ptr %28, align 1, !tbaa !102
  %30 = zext i8 %29 to i32
  %31 = sub nsw i32 255, %30
  %32 = sitofp i32 %31 to float
  %33 = load float, ptr %6, align 4, !tbaa !67
  %34 = fmul nsz float %32, %33
  %35 = call nsz float @llvm.fmuladd.f32(float %22, float %23, float %34)
  %36 = fptoui float %35 to i8
  %37 = load ptr, ptr %4, align 8, !tbaa !82
  %38 = load i32, ptr %8, align 4, !tbaa !47
  %39 = sub nsw i32 %38, 3
  %40 = sext i32 %39 to i64
  %41 = getelementptr inbounds i8, ptr %37, i64 %40
  store i8 %36, ptr %41, align 1, !tbaa !102
  %42 = load ptr, ptr %4, align 8, !tbaa !82
  %43 = load i32, ptr %8, align 4, !tbaa !47
  %44 = add nsw i32 %43, 3
  %45 = sext i32 %44 to i64
  %46 = getelementptr inbounds i8, ptr %42, i64 %45
  %47 = load i8, ptr %46, align 1, !tbaa !102
  %48 = zext i8 %47 to i32
  %49 = sitofp i32 %48 to float
  %50 = load float, ptr %7, align 4, !tbaa !67
  %51 = load ptr, ptr %4, align 8, !tbaa !82
  %52 = load i32, ptr %8, align 4, !tbaa !47
  %53 = add nsw i32 %52, 3
  %54 = sext i32 %53 to i64
  %55 = getelementptr inbounds i8, ptr %51, i64 %54
  %56 = load i8, ptr %55, align 1, !tbaa !102
  %57 = zext i8 %56 to i32
  %58 = sub nsw i32 255, %57
  %59 = sitofp i32 %58 to float
  %60 = load float, ptr %6, align 4, !tbaa !67
  %61 = fmul nsz float %59, %60
  %62 = call nsz float @llvm.fmuladd.f32(float %49, float %50, float %61)
  %63 = fptoui float %62 to i8
  %64 = load ptr, ptr %4, align 8, !tbaa !82
  %65 = load i32, ptr %8, align 4, !tbaa !47
  %66 = add nsw i32 %65, 3
  %67 = sext i32 %66 to i64
  %68 = getelementptr inbounds i8, ptr %64, i64 %67
  store i8 %63, ptr %68, align 1, !tbaa !102
  %69 = load ptr, ptr %4, align 8, !tbaa !82
  %70 = load i32, ptr %8, align 4, !tbaa !47
  %71 = sub nsw i32 0, %70
  %72 = sub nsw i32 %71, 3
  %73 = sext i32 %72 to i64
  %74 = getelementptr inbounds i8, ptr %69, i64 %73
  %75 = load i8, ptr %74, align 1, !tbaa !102
  %76 = zext i8 %75 to i32
  %77 = sitofp i32 %76 to float
  %78 = load float, ptr %7, align 4, !tbaa !67
  %79 = load ptr, ptr %4, align 8, !tbaa !82
  %80 = load i32, ptr %8, align 4, !tbaa !47
  %81 = sub nsw i32 0, %80
  %82 = sub nsw i32 %81, 3
  %83 = sext i32 %82 to i64
  %84 = getelementptr inbounds i8, ptr %79, i64 %83
  %85 = load i8, ptr %84, align 1, !tbaa !102
  %86 = zext i8 %85 to i32
  %87 = sub nsw i32 255, %86
  %88 = sitofp i32 %87 to float
  %89 = load float, ptr %6, align 4, !tbaa !67
  %90 = fmul nsz float %88, %89
  %91 = call nsz float @llvm.fmuladd.f32(float %77, float %78, float %90)
  %92 = fptoui float %91 to i8
  %93 = load ptr, ptr %4, align 8, !tbaa !82
  %94 = load i32, ptr %8, align 4, !tbaa !47
  %95 = sub nsw i32 0, %94
  %96 = sub nsw i32 %95, 3
  %97 = sext i32 %96 to i64
  %98 = getelementptr inbounds i8, ptr %93, i64 %97
  store i8 %92, ptr %98, align 1, !tbaa !102
  %99 = load ptr, ptr %4, align 8, !tbaa !82
  %100 = load i32, ptr %8, align 4, !tbaa !47
  %101 = sub nsw i32 0, %100
  %102 = add nsw i32 %101, 3
  %103 = sext i32 %102 to i64
  %104 = getelementptr inbounds i8, ptr %99, i64 %103
  %105 = load i8, ptr %104, align 1, !tbaa !102
  %106 = zext i8 %105 to i32
  %107 = sitofp i32 %106 to float
  %108 = load float, ptr %7, align 4, !tbaa !67
  %109 = load ptr, ptr %4, align 8, !tbaa !82
  %110 = load i32, ptr %8, align 4, !tbaa !47
  %111 = sub nsw i32 0, %110
  %112 = add nsw i32 %111, 3
  %113 = sext i32 %112 to i64
  %114 = getelementptr inbounds i8, ptr %109, i64 %113
  %115 = load i8, ptr %114, align 1, !tbaa !102
  %116 = zext i8 %115 to i32
  %117 = sub nsw i32 255, %116
  %118 = sitofp i32 %117 to float
  %119 = load float, ptr %6, align 4, !tbaa !67
  %120 = fmul nsz float %118, %119
  %121 = call nsz float @llvm.fmuladd.f32(float %107, float %108, float %120)
  %122 = fptoui float %121 to i8
  %123 = load ptr, ptr %4, align 8, !tbaa !82
  %124 = load i32, ptr %8, align 4, !tbaa !47
  %125 = sub nsw i32 0, %124
  %126 = add nsw i32 %125, 3
  %127 = sext i32 %126 to i64
  %128 = getelementptr inbounds i8, ptr %123, i64 %127
  store i8 %122, ptr %128, align 1, !tbaa !102
  %129 = load i32, ptr %5, align 4, !tbaa !47
  %130 = load i32, ptr %8, align 4, !tbaa !47
  %131 = add nsw i32 %130, %129
  store i32 %131, ptr %8, align 4, !tbaa !47
  %132 = load ptr, ptr %4, align 8, !tbaa !82
  %133 = load i32, ptr %8, align 4, !tbaa !47
  %134 = sub nsw i32 %133, 3
  %135 = sext i32 %134 to i64
  %136 = getelementptr inbounds i8, ptr %132, i64 %135
  %137 = load i8, ptr %136, align 1, !tbaa !102
  %138 = zext i8 %137 to i32
  %139 = sitofp i32 %138 to float
  %140 = load float, ptr %7, align 4, !tbaa !67
  %141 = load ptr, ptr %4, align 8, !tbaa !82
  %142 = load i32, ptr %8, align 4, !tbaa !47
  %143 = sub nsw i32 %142, 3
  %144 = sext i32 %143 to i64
  %145 = getelementptr inbounds i8, ptr %141, i64 %144
  %146 = load i8, ptr %145, align 1, !tbaa !102
  %147 = zext i8 %146 to i32
  %148 = sub nsw i32 255, %147
  %149 = sitofp i32 %148 to float
  %150 = load float, ptr %6, align 4, !tbaa !67
  %151 = fmul nsz float %149, %150
  %152 = call nsz float @llvm.fmuladd.f32(float %139, float %140, float %151)
  %153 = fptoui float %152 to i8
  %154 = load ptr, ptr %4, align 8, !tbaa !82
  %155 = load i32, ptr %8, align 4, !tbaa !47
  %156 = sub nsw i32 %155, 3
  %157 = sext i32 %156 to i64
  %158 = getelementptr inbounds i8, ptr %154, i64 %157
  store i8 %153, ptr %158, align 1, !tbaa !102
  %159 = load ptr, ptr %4, align 8, !tbaa !82
  %160 = load i32, ptr %8, align 4, !tbaa !47
  %161 = add nsw i32 %160, 3
  %162 = sext i32 %161 to i64
  %163 = getelementptr inbounds i8, ptr %159, i64 %162
  %164 = load i8, ptr %163, align 1, !tbaa !102
  %165 = zext i8 %164 to i32
  %166 = sitofp i32 %165 to float
  %167 = load float, ptr %7, align 4, !tbaa !67
  %168 = load ptr, ptr %4, align 8, !tbaa !82
  %169 = load i32, ptr %8, align 4, !tbaa !47
  %170 = add nsw i32 %169, 3
  %171 = sext i32 %170 to i64
  %172 = getelementptr inbounds i8, ptr %168, i64 %171
  %173 = load i8, ptr %172, align 1, !tbaa !102
  %174 = zext i8 %173 to i32
  %175 = sub nsw i32 255, %174
  %176 = sitofp i32 %175 to float
  %177 = load float, ptr %6, align 4, !tbaa !67
  %178 = fmul nsz float %176, %177
  %179 = call nsz float @llvm.fmuladd.f32(float %166, float %167, float %178)
  %180 = fptoui float %179 to i8
  %181 = load ptr, ptr %4, align 8, !tbaa !82
  %182 = load i32, ptr %8, align 4, !tbaa !47
  %183 = add nsw i32 %182, 3
  %184 = sext i32 %183 to i64
  %185 = getelementptr inbounds i8, ptr %181, i64 %184
  store i8 %180, ptr %185, align 1, !tbaa !102
  %186 = load ptr, ptr %4, align 8, !tbaa !82
  %187 = load i32, ptr %8, align 4, !tbaa !47
  %188 = sub nsw i32 %187, 2
  %189 = sext i32 %188 to i64
  %190 = getelementptr inbounds i8, ptr %186, i64 %189
  %191 = load i8, ptr %190, align 1, !tbaa !102
  %192 = zext i8 %191 to i32
  %193 = sitofp i32 %192 to float
  %194 = load float, ptr %7, align 4, !tbaa !67
  %195 = load ptr, ptr %4, align 8, !tbaa !82
  %196 = load i32, ptr %8, align 4, !tbaa !47
  %197 = sub nsw i32 %196, 2
  %198 = sext i32 %197 to i64
  %199 = getelementptr inbounds i8, ptr %195, i64 %198
  %200 = load i8, ptr %199, align 1, !tbaa !102
  %201 = zext i8 %200 to i32
  %202 = sub nsw i32 255, %201
  %203 = sitofp i32 %202 to float
  %204 = load float, ptr %6, align 4, !tbaa !67
  %205 = fmul nsz float %203, %204
  %206 = call nsz float @llvm.fmuladd.f32(float %193, float %194, float %205)
  %207 = fptoui float %206 to i8
  %208 = load ptr, ptr %4, align 8, !tbaa !82
  %209 = load i32, ptr %8, align 4, !tbaa !47
  %210 = sub nsw i32 %209, 2
  %211 = sext i32 %210 to i64
  %212 = getelementptr inbounds i8, ptr %208, i64 %211
  store i8 %207, ptr %212, align 1, !tbaa !102
  %213 = load ptr, ptr %4, align 8, !tbaa !82
  %214 = load i32, ptr %8, align 4, !tbaa !47
  %215 = add nsw i32 %214, 2
  %216 = sext i32 %215 to i64
  %217 = getelementptr inbounds i8, ptr %213, i64 %216
  %218 = load i8, ptr %217, align 1, !tbaa !102
  %219 = zext i8 %218 to i32
  %220 = sitofp i32 %219 to float
  %221 = load float, ptr %7, align 4, !tbaa !67
  %222 = load ptr, ptr %4, align 8, !tbaa !82
  %223 = load i32, ptr %8, align 4, !tbaa !47
  %224 = add nsw i32 %223, 2
  %225 = sext i32 %224 to i64
  %226 = getelementptr inbounds i8, ptr %222, i64 %225
  %227 = load i8, ptr %226, align 1, !tbaa !102
  %228 = zext i8 %227 to i32
  %229 = sub nsw i32 255, %228
  %230 = sitofp i32 %229 to float
  %231 = load float, ptr %6, align 4, !tbaa !67
  %232 = fmul nsz float %230, %231
  %233 = call nsz float @llvm.fmuladd.f32(float %220, float %221, float %232)
  %234 = fptoui float %233 to i8
  %235 = load ptr, ptr %4, align 8, !tbaa !82
  %236 = load i32, ptr %8, align 4, !tbaa !47
  %237 = add nsw i32 %236, 2
  %238 = sext i32 %237 to i64
  %239 = getelementptr inbounds i8, ptr %235, i64 %238
  store i8 %234, ptr %239, align 1, !tbaa !102
  %240 = load ptr, ptr %4, align 8, !tbaa !82
  %241 = load i32, ptr %8, align 4, !tbaa !47
  %242 = sub nsw i32 0, %241
  %243 = sub nsw i32 %242, 3
  %244 = sext i32 %243 to i64
  %245 = getelementptr inbounds i8, ptr %240, i64 %244
  %246 = load i8, ptr %245, align 1, !tbaa !102
  %247 = zext i8 %246 to i32
  %248 = sitofp i32 %247 to float
  %249 = load float, ptr %7, align 4, !tbaa !67
  %250 = load ptr, ptr %4, align 8, !tbaa !82
  %251 = load i32, ptr %8, align 4, !tbaa !47
  %252 = sub nsw i32 0, %251
  %253 = sub nsw i32 %252, 3
  %254 = sext i32 %253 to i64
  %255 = getelementptr inbounds i8, ptr %250, i64 %254
  %256 = load i8, ptr %255, align 1, !tbaa !102
  %257 = zext i8 %256 to i32
  %258 = sub nsw i32 255, %257
  %259 = sitofp i32 %258 to float
  %260 = load float, ptr %6, align 4, !tbaa !67
  %261 = fmul nsz float %259, %260
  %262 = call nsz float @llvm.fmuladd.f32(float %248, float %249, float %261)
  %263 = fptoui float %262 to i8
  %264 = load ptr, ptr %4, align 8, !tbaa !82
  %265 = load i32, ptr %8, align 4, !tbaa !47
  %266 = sub nsw i32 0, %265
  %267 = sub nsw i32 %266, 3
  %268 = sext i32 %267 to i64
  %269 = getelementptr inbounds i8, ptr %264, i64 %268
  store i8 %263, ptr %269, align 1, !tbaa !102
  %270 = load ptr, ptr %4, align 8, !tbaa !82
  %271 = load i32, ptr %8, align 4, !tbaa !47
  %272 = sub nsw i32 0, %271
  %273 = add nsw i32 %272, 3
  %274 = sext i32 %273 to i64
  %275 = getelementptr inbounds i8, ptr %270, i64 %274
  %276 = load i8, ptr %275, align 1, !tbaa !102
  %277 = zext i8 %276 to i32
  %278 = sitofp i32 %277 to float
  %279 = load float, ptr %7, align 4, !tbaa !67
  %280 = load ptr, ptr %4, align 8, !tbaa !82
  %281 = load i32, ptr %8, align 4, !tbaa !47
  %282 = sub nsw i32 0, %281
  %283 = add nsw i32 %282, 3
  %284 = sext i32 %283 to i64
  %285 = getelementptr inbounds i8, ptr %280, i64 %284
  %286 = load i8, ptr %285, align 1, !tbaa !102
  %287 = zext i8 %286 to i32
  %288 = sub nsw i32 255, %287
  %289 = sitofp i32 %288 to float
  %290 = load float, ptr %6, align 4, !tbaa !67
  %291 = fmul nsz float %289, %290
  %292 = call nsz float @llvm.fmuladd.f32(float %278, float %279, float %291)
  %293 = fptoui float %292 to i8
  %294 = load ptr, ptr %4, align 8, !tbaa !82
  %295 = load i32, ptr %8, align 4, !tbaa !47
  %296 = sub nsw i32 0, %295
  %297 = add nsw i32 %296, 3
  %298 = sext i32 %297 to i64
  %299 = getelementptr inbounds i8, ptr %294, i64 %298
  store i8 %293, ptr %299, align 1, !tbaa !102
  %300 = load ptr, ptr %4, align 8, !tbaa !82
  %301 = load i32, ptr %8, align 4, !tbaa !47
  %302 = sub nsw i32 0, %301
  %303 = sub nsw i32 %302, 2
  %304 = sext i32 %303 to i64
  %305 = getelementptr inbounds i8, ptr %300, i64 %304
  %306 = load i8, ptr %305, align 1, !tbaa !102
  %307 = zext i8 %306 to i32
  %308 = sitofp i32 %307 to float
  %309 = load float, ptr %7, align 4, !tbaa !67
  %310 = load ptr, ptr %4, align 8, !tbaa !82
  %311 = load i32, ptr %8, align 4, !tbaa !47
  %312 = sub nsw i32 0, %311
  %313 = sub nsw i32 %312, 2
  %314 = sext i32 %313 to i64
  %315 = getelementptr inbounds i8, ptr %310, i64 %314
  %316 = load i8, ptr %315, align 1, !tbaa !102
  %317 = zext i8 %316 to i32
  %318 = sub nsw i32 255, %317
  %319 = sitofp i32 %318 to float
  %320 = load float, ptr %6, align 4, !tbaa !67
  %321 = fmul nsz float %319, %320
  %322 = call nsz float @llvm.fmuladd.f32(float %308, float %309, float %321)
  %323 = fptoui float %322 to i8
  %324 = load ptr, ptr %4, align 8, !tbaa !82
  %325 = load i32, ptr %8, align 4, !tbaa !47
  %326 = sub nsw i32 0, %325
  %327 = sub nsw i32 %326, 2
  %328 = sext i32 %327 to i64
  %329 = getelementptr inbounds i8, ptr %324, i64 %328
  store i8 %323, ptr %329, align 1, !tbaa !102
  %330 = load ptr, ptr %4, align 8, !tbaa !82
  %331 = load i32, ptr %8, align 4, !tbaa !47
  %332 = sub nsw i32 0, %331
  %333 = add nsw i32 %332, 2
  %334 = sext i32 %333 to i64
  %335 = getelementptr inbounds i8, ptr %330, i64 %334
  %336 = load i8, ptr %335, align 1, !tbaa !102
  %337 = zext i8 %336 to i32
  %338 = sitofp i32 %337 to float
  %339 = load float, ptr %7, align 4, !tbaa !67
  %340 = load ptr, ptr %4, align 8, !tbaa !82
  %341 = load i32, ptr %8, align 4, !tbaa !47
  %342 = sub nsw i32 0, %341
  %343 = add nsw i32 %342, 2
  %344 = sext i32 %343 to i64
  %345 = getelementptr inbounds i8, ptr %340, i64 %344
  %346 = load i8, ptr %345, align 1, !tbaa !102
  %347 = zext i8 %346 to i32
  %348 = sub nsw i32 255, %347
  %349 = sitofp i32 %348 to float
  %350 = load float, ptr %6, align 4, !tbaa !67
  %351 = fmul nsz float %349, %350
  %352 = call nsz float @llvm.fmuladd.f32(float %338, float %339, float %351)
  %353 = fptoui float %352 to i8
  %354 = load ptr, ptr %4, align 8, !tbaa !82
  %355 = load i32, ptr %8, align 4, !tbaa !47
  %356 = sub nsw i32 0, %355
  %357 = add nsw i32 %356, 2
  %358 = sext i32 %357 to i64
  %359 = getelementptr inbounds i8, ptr %354, i64 %358
  store i8 %353, ptr %359, align 1, !tbaa !102
  call void @llvm.lifetime.end.p0(i64 4, ptr %8) #11
  call void @llvm.lifetime.end.p0(i64 4, ptr %7) #11
  ret void
}