; Function Attrs: mustprogress nofree norecurse nosync nounwind willreturn memory(argmem: readwrite) uwtable
define internal fastcc void @draw_idots(ptr noundef captures(none) %0, i32 noundef %1, float noundef %2) unnamed_addr #10 {
  %4 = fsub nsz float 1.000000e+00, %2
  %5 = shl nsw i32 %1, 1
  %6 = sext i32 %5 to i64
  %7 = getelementptr i8, ptr %0, i64 %6
  %8 = getelementptr i8, ptr %7, i64 -3
  %9 = load i8, ptr %8, align 1, !tbaa !94
  %10 = uitofp i8 %9 to float
  %11 = xor i8 %9, -1
  %12 = uitofp i8 %11 to float
  %13 = fmul nsz float %2, %12
  %14 = tail call nsz float @llvm.fmuladd.f32(float %10, float %4, float %13)
  %15 = fptoui float %14 to i8
  store i8 %15, ptr %8, align 1, !tbaa !94
  %16 = getelementptr i8, ptr %7, i64 3
  %17 = load i8, ptr %16, align 1, !tbaa !94
  %18 = uitofp i8 %17 to float
  %19 = xor i8 %17, -1
  %20 = uitofp i8 %19 to float
  %21 = fmul nsz float %2, %20
  %22 = tail call nsz float @llvm.fmuladd.f32(float %18, float %4, float %21)
  %23 = fptoui float %22 to i8
  store i8 %23, ptr %16, align 1, !tbaa !94
  %24 = sub i32 -3, %5
  %25 = sext i32 %24 to i64
  %26 = getelementptr inbounds i8, ptr %0, i64 %25
  %27 = load i8, ptr %26, align 1, !tbaa !94
  %28 = uitofp i8 %27 to float
  %29 = xor i8 %27, -1
  %30 = uitofp i8 %29 to float
  %31 = fmul nsz float %2, %30
  %32 = tail call nsz float @llvm.fmuladd.f32(float %28, float %4, float %31)
  %33 = fptoui float %32 to i8
  store i8 %33, ptr %26, align 1, !tbaa !94
  %34 = sub i32 3, %5
  %35 = sext i32 %34 to i64
  %36 = getelementptr inbounds i8, ptr %0, i64 %35
  %37 = load i8, ptr %36, align 1, !tbaa !94
  %38 = uitofp i8 %37 to float
  %39 = xor i8 %37, -1
  %40 = uitofp i8 %39 to float
  %41 = fmul nsz float %2, %40
  %42 = tail call nsz float @llvm.fmuladd.f32(float %38, float %4, float %41)
  %43 = fptoui float %42 to i8
  store i8 %43, ptr %36, align 1, !tbaa !94
  %44 = mul nsw i32 %1, 3
  %45 = sext i32 %44 to i64
  %46 = getelementptr i8, ptr %0, i64 %45
  %47 = getelementptr i8, ptr %46, i64 -3
  %48 = load i8, ptr %47, align 1, !tbaa !94
  %49 = uitofp i8 %48 to float
  %50 = xor i8 %48, -1
  %51 = uitofp i8 %50 to float
  %52 = fmul nsz float %2, %51
  %53 = tail call nsz float @llvm.fmuladd.f32(float %49, float %4, float %52)
  %54 = fptoui float %53 to i8
  store i8 %54, ptr %47, align 1, !tbaa !94
  %55 = getelementptr i8, ptr %46, i64 3
  %56 = load i8, ptr %55, align 1, !tbaa !94
  %57 = uitofp i8 %56 to float
  %58 = xor i8 %56, -1
  %59 = uitofp i8 %58 to float
  %60 = fmul nsz float %2, %59
  %61 = tail call nsz float @llvm.fmuladd.f32(float %57, float %4, float %60)
  %62 = fptoui float %61 to i8
  store i8 %62, ptr %55, align 1, !tbaa !94
  %63 = getelementptr i8, ptr %46, i64 -2
  %64 = load i8, ptr %63, align 1, !tbaa !94
  %65 = uitofp i8 %64 to float
  %66 = xor i8 %64, -1
  %67 = uitofp i8 %66 to float
  %68 = fmul nsz float %2, %67
  %69 = tail call nsz float @llvm.fmuladd.f32(float %65, float %4, float %68)
  %70 = fptoui float %69 to i8
  store i8 %70, ptr %63, align 1, !tbaa !94
  %71 = getelementptr i8, ptr %46, i64 2
  %72 = load i8, ptr %71, align 1, !tbaa !94
  %73 = uitofp i8 %72 to float
  %74 = xor i8 %72, -1
  %75 = uitofp i8 %74 to float
  %76 = fmul nsz float %2, %75
  %77 = tail call nsz float @llvm.fmuladd.f32(float %73, float %4, float %76)
  %78 = fptoui float %77 to i8
  store i8 %78, ptr %71, align 1, !tbaa !94
  %79 = sub i32 -3, %44
  %80 = sext i32 %79 to i64
  %81 = getelementptr inbounds i8, ptr %0, i64 %80
  %82 = load i8, ptr %81, align 1, !tbaa !94
  %83 = uitofp i8 %82 to float
  %84 = xor i8 %82, -1
  %85 = uitofp i8 %84 to float
  %86 = fmul nsz float %2, %85
  %87 = tail call nsz float @llvm.fmuladd.f32(float %83, float %4, float %86)
  %88 = fptoui float %87 to i8
  store i8 %88, ptr %81, align 1, !tbaa !94
  %89 = sub i32 3, %44
  %90 = sext i32 %89 to i64
  %91 = getelementptr inbounds i8, ptr %0, i64 %90
  %92 = load i8, ptr %91, align 1, !tbaa !94
  %93 = uitofp i8 %92 to float
  %94 = xor i8 %92, -1
  %95 = uitofp i8 %94 to float
  %96 = fmul nsz float %2, %95
  %97 = tail call nsz float @llvm.fmuladd.f32(float %93, float %4, float %96)
  %98 = fptoui float %97 to i8
  store i8 %98, ptr %91, align 1, !tbaa !94
  %99 = sub i32 -2, %44
  %100 = sext i32 %99 to i64
  %101 = getelementptr inbounds i8, ptr %0, i64 %100
  %102 = load i8, ptr %101, align 1, !tbaa !94
  %103 = uitofp i8 %102 to float
  %104 = xor i8 %102, -1
  %105 = uitofp i8 %104 to float
  %106 = fmul nsz float %2, %105
  %107 = tail call nsz float @llvm.fmuladd.f32(float %103, float %4, float %106)
  %108 = fptoui float %107 to i8
  store i8 %108, ptr %101, align 1, !tbaa !94
  %109 = sub i32 2, %44
  %110 = sext i32 %109 to i64
  %111 = getelementptr inbounds i8, ptr %0, i64 %110
  %112 = load i8, ptr %111, align 1, !tbaa !94
  %113 = uitofp i8 %112 to float
  %114 = xor i8 %112, -1
  %115 = uitofp i8 %114 to float
  %116 = fmul nsz float %2, %115
  %117 = tail call nsz float @llvm.fmuladd.f32(float %113, float %4, float %116)
  %118 = fptoui float %117 to i8
  store i8 %118, ptr %111, align 1, !tbaa !94
  ret void
}